target datalayout = "e-m:e-p270:32:32-p271:32:32-p272:64:64-i64:64-i128:128-f80:128-n8:16:32:64-S128"
target triple = "x86_64-pc-linux-gnu"

%struct.MPADSPContext = type { ptr, ptr, ptr, ptr, ptr, ptr }

@mpadsp_table_init = internal global i32 0, align 4

; Function Attrs: cold nounwind optsize uwtable
define hidden void @ff_mpadsp_init(ptr noundef %0) #0 {
  %2 = alloca ptr, align 8
  store ptr %0, ptr %2, align 8, !tbaa !4
  %3 = call i32 @pthread_once(ptr noundef @mpadsp_table_init, ptr noundef @mpadsp_init_tabs)
  %4 = load ptr, ptr %2, align 8, !tbaa !4
  %5 = getelementptr inbounds nuw %struct.MPADSPContext, ptr %4, i32 0, i32 0
  store ptr @ff_mpadsp_apply_window_float, ptr %5, align 8, !tbaa !9
  %6 = load ptr, ptr %2, align 8, !tbaa !4
  %7 = getelementptr inbounds nuw %struct.MPADSPContext, ptr %6, i32 0, i32 1
  store ptr @ff_mpadsp_apply_window_fixed, ptr %7, align 8, !tbaa !11
  %8 = load ptr, ptr %2, align 8, !tbaa !4
  %9 = getelementptr inbounds nuw %struct.MPADSPContext, ptr %8, i32 0, i32 2
  store ptr @ff_dct32_float, ptr %9, align 8, !tbaa !12
  %10 = load ptr, ptr %2, align 8, !tbaa !4
  %11 = getelementptr inbounds nuw %struct.MPADSPContext, ptr %10, i32 0, i32 3
  store ptr @ff_dct32_fixed, ptr %11, align 8, !tbaa !13
  %12 = load ptr, ptr %2, align 8, !tbaa !4
  %13 = getelementptr inbounds nuw %struct.MPADSPContext, ptr %12, i32 0, i32 4
  store ptr @ff_imdct36_blocks_float, ptr %13, align 8, !tbaa !14
  %14 = load ptr, ptr %2, align 8, !tbaa !4
  %15 = getelementptr inbounds nuw %struct.MPADSPContext, ptr %14, i32 0, i32 5
  store ptr @ff_imdct36_blocks_fixed, ptr %15, align 8, !tbaa !15
  ret void
}