; Function Attrs: cold nounwind optsize uwtable
define hidden void @ff_mpadsp_init(ptr noundef writeonly captures(none) initializes((0, 48)) %0) local_unnamed_addr #0 {
  %2 = tail call i32 @pthread_once(ptr noundef nonnull @mpadsp_table_init, ptr noundef nonnull @mpadsp_init_tabs) #4
  store ptr @ff_mpadsp_apply_window_float, ptr %0, align 8, !tbaa !4
  %3 = getelementptr inbounds nuw i8, ptr %0, i64 8
  store ptr @ff_mpadsp_apply_window_fixed, ptr %3, align 8, !tbaa !9
  %4 = getelementptr inbounds nuw i8, ptr %0, i64 16
  store ptr @ff_dct32_float, ptr %4, align 8, !tbaa !10
  %5 = getelementptr inbounds nuw i8, ptr %0, i64 24
  store ptr @ff_dct32_fixed, ptr %5, align 8, !tbaa !11
  %6 = getelementptr inbounds nuw i8, ptr %0, i64 32
  store ptr @ff_imdct36_blocks_float, ptr %6, align 8, !tbaa !12
  %7 = getelementptr inbounds nuw i8, ptr %0, i64 40
  store ptr @ff_imdct36_blocks_fixed, ptr %7, align 8, !tbaa !13
  ret void
}